; Function Attrs: nounwind uwtable
define internal noundef ptr @builtin_hasattr(ptr readnone captures(none) %0, ptr noundef readonly captures(none) %1, i64 noundef %2) #0 {
  %4 = alloca ptr, align 8
  %or.cond = icmp eq i64 %2, 2
  br i1 %or.cond, label %7, label %5

5:                                                ; preds = %3
  %6 = tail call i32 @_PyArg_CheckPositional(ptr noundef nonnull @.str.70, i64 noundef %2, i64 noundef 2, i64 noundef 2) #9
  %.not = icmp eq i32 %6, 0
  br i1 %.not, label %22, label %7

7:                                                ; preds = %3, %5
  %8 = load ptr, ptr %1, align 8, !tbaa !39
  %9 = getelementptr i8, ptr %1, i64 8
  %10 = load ptr, ptr %9, align 8, !tbaa !39
  call void @llvm.lifetime.start.p0(i64 8, ptr nonnull %4) #9
  %11 = call i32 @PyObject_GetOptionalAttr(ptr noundef %8, ptr noundef %10, ptr noundef nonnull %4) #9
  %12 = icmp slt i32 %11, 0
  br i1 %12, label %builtin_hasattr_impl.exit, label %13

13:                                               ; preds = %7
  %14 = load ptr, ptr %4, align 8, !tbaa !39
  %15 = icmp eq ptr %14, null
  br i1 %15, label %builtin_hasattr_impl.exit, label %16

16:                                               ; preds = %13
  %17 = load i32, ptr %14, align 8, !tbaa !33
  %.not.i.i = icmp sgt i32 %17, -1
  br i1 %.not.i.i, label %18, label %builtin_hasattr_impl.exit

18:                                               ; preds = %16
  %19 = add nsw i32 %17, -1
  store i32 %19, ptr %14, align 8, !tbaa !33
  %20 = icmp eq i32 %19, 0
  br i1 %20, label %21, label %builtin_hasattr_impl.exit

21:                                               ; preds = %18
  call void @_Py_Dealloc(ptr noundef nonnull %14) #9
  br label %builtin_hasattr_impl.exit

builtin_hasattr_impl.exit:                        ; preds = %7, %13, %16, %18, %21
  %.0.i = phi ptr [ null, %7 ], [ @_Py_FalseStruct, %13 ], [ @_Py_TrueStruct, %16 ], [ @_Py_TrueStruct, %18 ], [ @_Py_TrueStruct, %21 ]
  call void @llvm.lifetime.end.p0(i64 8, ptr nonnull %4) #9
  br label %22

22:                                               ; preds = %5, %builtin_hasattr_impl.exit
  %.0 = phi ptr [ %.0.i, %builtin_hasattr_impl.exit ], [ null, %5 ]
  ret ptr %.0
}